ARM GAS  C:\Users\bhatt\AppData\Local\Temp\ccFMifLa.s 			page 1


   1              		.syntax unified
   2              		.cpu cortex-m0
   3              		.fpu softvfp
   4              		.eabi_attribute 20, 1
   5              		.eabi_attribute 21, 1
   6              		.eabi_attribute 23, 3
   7              		.eabi_attribute 24, 1
   8              		.eabi_attribute 25, 1
   9              		.eabi_attribute 26, 1
  10              		.eabi_attribute 30, 1
  11              		.eabi_attribute 34, 0
  12              		.eabi_attribute 18, 4
  13              		.thumb
  14              		.syntax unified
  15              		.file	"main.c"
  16              		.text
  17              	.Ltext0:
  18              		.cfi_sections	.debug_frame
  19              		.global	__aeabi_i2f
  20              		.global	__aeabi_fcmplt
  21              		.global	__aeabi_f2iz
  22              		.global	__aeabi_fcmpgt
  23              		.global	__aeabi_fsub
  24              		.global	__aeabi_fdiv
  25              		.global	__aeabi_fmul
  26              		.global	__aeabi_fadd
  27              		.global	__aeabi_f2d
  28              		.global	__aeabi_dmul
  29              		.global	__aeabi_dsub
  30              		.global	__aeabi_d2f
  31              		.section	.text.main,"ax",%progbits
  32              		.align	2
  33              		.global	main
  34              		.code	16
  35              		.thumb_func
  36              		.type	main, %function
  37              	main:
  38              	.LFB33:
  39              		.file 1 "main.c"
   1:main.c        **** /* ========================================
   2:main.c        ****  *
   3:main.c        ****  * Copyright YOUR COMPANY, THE YEAR
   4:main.c        ****  * All Rights Reserved
   5:main.c        ****  * UNPUBLISHED, LICENSED SOFTWARE.
   6:main.c        ****  *
   7:main.c        ****  * CONFIDENTIAL AND PROPRIETARY INFORMATION
   8:main.c        ****  * WHICH IS THE PROPERTY OF your company.
   9:main.c        ****  *
  10:main.c        ****  * ========================================
  11:main.c        **** */
  12:main.c        **** #include "project.h"
  13:main.c        **** #include <stdio.h>
  14:main.c        **** 
  15:main.c        **** char str[200];
  16:main.c        **** 
  17:main.c        **** int potVal[4];
  18:main.c        **** int rawPotVal[4];
ARM GAS  C:\Users\bhatt\AppData\Local\Temp\ccFMifLa.s 			page 2


  19:main.c        **** int servoDuty[4];
  20:main.c        **** int servoHighLimit[4] = {4700, 4670, 4900, 4900};
  21:main.c        **** int servoLowLimit[4] = {4300,4250,4100,4100};
  22:main.c        **** float servoDutyPer[4];
  23:main.c        **** //int potVal;
  24:main.c        **** //int rawPotVal;
  25:main.c        **** //int servoDuty;
  26:main.c        **** //int potVal_1;
  27:main.c        **** //int rawPotVal_1;
  28:main.c        **** //int servoDuty_1;
  29:main.c        **** //float servoHighLimit = 4700;
  30:main.c        **** //float servoLowLimit = 4300;
  31:main.c        **** //float servoHighLimit_1 = 4670;
  32:main.c        **** //float servoLowLimit_1 = 4250;
  33:main.c        **** float potHighLimit = 1300;
  34:main.c        **** float potLowLimit = 0;
  35:main.c        **** int first = 0;
  36:main.c        **** int i = 0;
  37:main.c        **** 
  38:main.c        **** int main(void)
  39:main.c        **** {
  40              		.loc 1 39 0
  41              		.cfi_startproc
  42              		@ Volatile: function does not return.
  43              		@ args = 0, pretend = 0, frame = 8
  44              		@ frame_needed = 0, uses_anonymous_args = 0
  45 0000 F0B5     		push	{r4, r5, r6, r7, lr}
  46              		.cfi_def_cfa_offset 20
  47              		.cfi_offset 4, -20
  48              		.cfi_offset 5, -16
  49              		.cfi_offset 6, -12
  50              		.cfi_offset 7, -8
  51              		.cfi_offset 14, -4
  52 0002 5F46     		mov	r7, fp
  53 0004 5646     		mov	r6, r10
  54 0006 4D46     		mov	r5, r9
  55 0008 4446     		mov	r4, r8
  56 000a F0B4     		push	{r4, r5, r6, r7}
  57              		.cfi_def_cfa_offset 36
  58              		.cfi_offset 8, -36
  59              		.cfi_offset 9, -32
  60              		.cfi_offset 10, -28
  61              		.cfi_offset 11, -24
  62 000c 95B0     		sub	sp, sp, #84
  63              		.cfi_def_cfa_offset 120
  40:main.c        ****     CyGlobalIntEnable; /* Enable global interrupts. */
  64              		.loc 1 40 0
  65              		.syntax divided
  66              	@ 40 "main.c" 1
  67 000e 62B6     		CPSIE   i
  68              	@ 0 "" 2
  41:main.c        ****     UART_Start();
  69              		.loc 1 41 0
  70              		.thumb
  71              		.syntax unified
  72 0010 FFF7FEFF 		bl	UART_Start
  73              	.LVL0:
ARM GAS  C:\Users\bhatt\AppData\Local\Temp\ccFMifLa.s 			page 3


  42:main.c        ****     
  43:main.c        ****     // Start ADC    
  44:main.c        ****     ADC_Start();
  74              		.loc 1 44 0
  75 0014 FFF7FEFF 		bl	ADC_Start
  76              	.LVL1:
  45:main.c        ****     ADC_StartConvert(); //always poll ADC continuously
  77              		.loc 1 45 0
  78 0018 FFF7FEFF 		bl	ADC_StartConvert
  79              	.LVL2:
  46:main.c        ****     
  47:main.c        ****     // Start PWM for J1
  48:main.c        ****     PWM_1_Start();
  80              		.loc 1 48 0
  81 001c FFF7FEFF 		bl	PWM_1_Start
  82              	.LVL3:
  49:main.c        ****     // Start PWM for J2
  50:main.c        ****     PWM_2_Start();
  83              		.loc 1 50 0
  84 0020 FFF7FEFF 		bl	PWM_2_Start
  85              	.LVL4:
  51:main.c        ****     // Start PWM for J3
  52:main.c        ****     PWM_3_Start();
  86              		.loc 1 52 0
  87 0024 FFF7FEFF 		bl	PWM_3_Start
  88              	.LVL5:
  53:main.c        ****     // Start PWM for J4
  54:main.c        ****     PWM_4_Start();
  89              		.loc 1 54 0
  90 0028 FFF7FEFF 		bl	PWM_4_Start
  91              	.LVL6:
  55:main.c        ****     //PWM_WritePeriod(65300u);
  56:main.c        ****     //PWM_WriteCompare(32650u);
  57:main.c        ****     /* Place your initialization/startup code here (e.g. MyInst_Start()) */
  58:main.c        ****     CyDelay(500);
  92              		.loc 1 58 0
  93 002c FA20     		movs	r0, #250
  94 002e 4000     		lsls	r0, r0, #1
  95 0030 FFF7FEFF 		bl	CyDelay
  96              	.LVL7:
  59:main.c        ****     UART_UartPutString("Arm Test v1.0\r\n");
  97              		.loc 1 59 0
  98 0034 7F48     		ldr	r0, .L19
  99 0036 FFF7FEFF 		bl	UART_UartPutString
 100              	.LVL8:
  60:main.c        ****     UART_UartPutString("Author: Amar Bhatt\r\n\r\n");
 101              		.loc 1 60 0
 102 003a 7F48     		ldr	r0, .L19+4
 103 003c FFF7FEFF 		bl	UART_UartPutString
 104              	.LVL9:
 105              	.L14:
  61:main.c        ****     
  62:main.c        ****     for(;;)
  63:main.c        ****     {
  64:main.c        ****         /* Place your application code here. */
  65:main.c        ****         if(first == 1) {
 106              		.loc 1 65 0
ARM GAS  C:\Users\bhatt\AppData\Local\Temp\ccFMifLa.s 			page 4


 107 0040 7E4B     		ldr	r3, .L19+8
 108 0042 1B68     		ldr	r3, [r3]
 109 0044 012B     		cmp	r3, #1
 110 0046 02D1     		bne	.L2
  66:main.c        ****             UART_UartPutString("\r\033[A\33[2K \r\033[A\33[2K \r\033[A\33[2K \r\033[A\33[2K \r");//
 111              		.loc 1 66 0
 112 0048 7D48     		ldr	r0, .L19+12
 113 004a FFF7FEFF 		bl	UART_UartPutString
 114              	.LVL10:
 115              	.L2:
  67:main.c        ****         }
  68:main.c        ****         // Read pot values for J1, J2, J3, J4
  69:main.c        ****         rawPotVal[0] = ADC_GetResult16(0);
 116              		.loc 1 69 0
 117 004e 0020     		movs	r0, #0
 118 0050 FFF7FEFF 		bl	ADC_GetResult16
 119              	.LVL11:
 120 0054 7B4C     		ldr	r4, .L19+16
 121 0056 2060     		str	r0, [r4]
  70:main.c        ****         rawPotVal[1] = ADC_GetResult16(1);  
 122              		.loc 1 70 0
 123 0058 0120     		movs	r0, #1
 124 005a FFF7FEFF 		bl	ADC_GetResult16
 125              	.LVL12:
 126 005e 6060     		str	r0, [r4, #4]
  71:main.c        ****         rawPotVal[2] = ADC_GetResult16(2);  
 127              		.loc 1 71 0
 128 0060 0220     		movs	r0, #2
 129 0062 FFF7FEFF 		bl	ADC_GetResult16
 130              	.LVL13:
 131 0066 A060     		str	r0, [r4, #8]
  72:main.c        ****         rawPotVal[3] = ADC_GetResult16(3); 
 132              		.loc 1 72 0
 133 0068 0320     		movs	r0, #3
 134 006a FFF7FEFF 		bl	ADC_GetResult16
 135              	.LVL14:
 136 006e 8346     		mov	fp, r0
 137 0070 E060     		str	r0, [r4, #12]
  73:main.c        ****         
  74:main.c        ****         // Adjust based on min and max
  75:main.c        ****         for(i = 0; i<4;i++){
 138              		.loc 1 75 0
 139 0072 0022     		movs	r2, #0
 140 0074 714B     		ldr	r3, .L19+8
 141 0076 5A60     		str	r2, [r3, #4]
 142 0078 29E0     		b	.L3
 143              	.L9:
  76:main.c        ****             if (rawPotVal[i] < potLowLimit) {
 144              		.loc 1 76 0
 145 007a A300     		lsls	r3, r4, #2
 146 007c 714A     		ldr	r2, .L19+16
 147 007e 9F58     		ldr	r7, [r3, r2]
 148 0080 3800     		movs	r0, r7
 149 0082 FFF7FEFF 		bl	__aeabi_i2f
 150              	.LVL15:
 151 0086 051C     		adds	r5, r0, #0
 152 0088 6C4B     		ldr	r3, .L19+8
ARM GAS  C:\Users\bhatt\AppData\Local\Temp\ccFMifLa.s 			page 5


 153 008a 9E68     		ldr	r6, [r3, #8]
 154 008c 311C     		adds	r1, r6, #0
 155 008e FFF7FEFF 		bl	__aeabi_fcmplt
 156              	.LVL16:
 157 0092 0028     		cmp	r0, #0
 158 0094 06D0     		beq	.L17
  77:main.c        ****                 potVal[i] = potLowLimit;
 159              		.loc 1 77 0
 160 0096 A500     		lsls	r5, r4, #2
 161 0098 301C     		adds	r0, r6, #0
 162 009a FFF7FEFF 		bl	__aeabi_f2iz
 163              	.LVL17:
 164 009e 6A4B     		ldr	r3, .L19+20
 165 00a0 E850     		str	r0, [r5, r3]
 166 00a2 11E0     		b	.L6
 167              	.L17:
  78:main.c        ****             } else if (rawPotVal[i] > potHighLimit){
 168              		.loc 1 78 0
 169 00a4 694B     		ldr	r3, .L19+24
 170 00a6 1E68     		ldr	r6, [r3]
 171 00a8 311C     		adds	r1, r6, #0
 172 00aa 281C     		adds	r0, r5, #0
 173 00ac FFF7FEFF 		bl	__aeabi_fcmpgt
 174              	.LVL18:
 175 00b0 0028     		cmp	r0, #0
 176 00b2 06D0     		beq	.L18
  79:main.c        ****                 potVal[i] = potHighLimit;
 177              		.loc 1 79 0
 178 00b4 A500     		lsls	r5, r4, #2
 179 00b6 301C     		adds	r0, r6, #0
 180 00b8 FFF7FEFF 		bl	__aeabi_f2iz
 181              	.LVL19:
 182 00bc 624B     		ldr	r3, .L19+20
 183 00be E850     		str	r0, [r5, r3]
 184 00c0 02E0     		b	.L6
 185              	.L18:
  80:main.c        ****             } else {
  81:main.c        ****                 potVal[i] = rawPotVal[i];
 186              		.loc 1 81 0
 187 00c2 A300     		lsls	r3, r4, #2
 188 00c4 604A     		ldr	r2, .L19+20
 189 00c6 9F50     		str	r7, [r3, r2]
 190              	.L6:
  75:main.c        ****             if (rawPotVal[i] < potLowLimit) {
 191              		.loc 1 75 0 discriminator 2
 192 00c8 0134     		adds	r4, r4, #1
 193 00ca 5C4B     		ldr	r3, .L19+8
 194 00cc 5C60     		str	r4, [r3, #4]
 195              	.L3:
  75:main.c        ****             if (rawPotVal[i] < potLowLimit) {
 196              		.loc 1 75 0 is_stmt 0 discriminator 1
 197 00ce 5B4B     		ldr	r3, .L19+8
 198 00d0 5C68     		ldr	r4, [r3, #4]
 199 00d2 032C     		cmp	r4, #3
 200 00d4 D1DD     		ble	.L9
  82:main.c        ****             }       
  83:main.c        ****         
ARM GAS  C:\Users\bhatt\AppData\Local\Temp\ccFMifLa.s 			page 6


  84:main.c        ****         }
  85:main.c        ****         
  86:main.c        ****         //Find Servo Duty Count
  87:main.c        ****         
  88:main.c        ****         for (i=0;i<4;i++){
 201              		.loc 1 88 0 is_stmt 1
 202 00d6 0022     		movs	r2, #0
 203 00d8 5A60     		str	r2, [r3, #4]
 204 00da 2DE0     		b	.L10
 205              	.L11:
  89:main.c        ****             servoDuty[i] = (potVal[i]-potLowLimit)*((servoHighLimit[i]-servoLowLimit[i])/(potHighLi
 206              		.loc 1 89 0 discriminator 3
 207 00dc A500     		lsls	r5, r4, #2
 208 00de 5A4B     		ldr	r3, .L19+20
 209 00e0 E858     		ldr	r0, [r5, r3]
 210 00e2 564F     		ldr	r7, .L19+8
 211 00e4 BE68     		ldr	r6, [r7, #8]
 212 00e6 FFF7FEFF 		bl	__aeabi_i2f
 213              	.LVL20:
 214 00ea 311C     		adds	r1, r6, #0
 215 00ec FFF7FEFF 		bl	__aeabi_fsub
 216              	.LVL21:
 217 00f0 1390     		str	r0, [sp, #76]
 218 00f2 564B     		ldr	r3, .L19+24
 219 00f4 5A19     		adds	r2, r3, r5
 220 00f6 5168     		ldr	r1, [r2, #4]
 221 00f8 5269     		ldr	r2, [r2, #20]
 222 00fa 9146     		mov	r9, r2
 223 00fc 8A1A     		subs	r2, r1, r2
 224 00fe 9246     		mov	r10, r2
 225 0100 311C     		adds	r1, r6, #0
 226 0102 1868     		ldr	r0, [r3]
 227 0104 FFF7FEFF 		bl	__aeabi_fsub
 228              	.LVL22:
 229 0108 061C     		adds	r6, r0, #0
 230 010a 5046     		mov	r0, r10
 231 010c FFF7FEFF 		bl	__aeabi_i2f
 232              	.LVL23:
 233 0110 311C     		adds	r1, r6, #0
 234 0112 FFF7FEFF 		bl	__aeabi_fdiv
 235              	.LVL24:
 236 0116 011C     		adds	r1, r0, #0
 237 0118 1398     		ldr	r0, [sp, #76]
 238 011a FFF7FEFF 		bl	__aeabi_fmul
 239              	.LVL25:
 240 011e 061C     		adds	r6, r0, #0
 241 0120 4846     		mov	r0, r9
 242 0122 FFF7FEFF 		bl	__aeabi_i2f
 243              	.LVL26:
 244 0126 311C     		adds	r1, r6, #0
 245 0128 FFF7FEFF 		bl	__aeabi_fadd
 246              	.LVL27:
 247 012c FFF7FEFF 		bl	__aeabi_f2iz
 248              	.LVL28:
 249 0130 474B     		ldr	r3, .L19+28
 250 0132 E850     		str	r0, [r5, r3]
  88:main.c        ****             servoDuty[i] = (potVal[i]-potLowLimit)*((servoHighLimit[i]-servoLowLimit[i])/(potHighLi
ARM GAS  C:\Users\bhatt\AppData\Local\Temp\ccFMifLa.s 			page 7


 251              		.loc 1 88 0 discriminator 3
 252 0134 0134     		adds	r4, r4, #1
 253 0136 7C60     		str	r4, [r7, #4]
 254              	.L10:
  88:main.c        ****             servoDuty[i] = (potVal[i]-potLowLimit)*((servoHighLimit[i]-servoLowLimit[i])/(potHighLi
 255              		.loc 1 88 0 is_stmt 0 discriminator 1
 256 0138 404B     		ldr	r3, .L19+8
 257 013a 5C68     		ldr	r4, [r3, #4]
 258 013c 032C     		cmp	r4, #3
 259 013e CDDD     		ble	.L11
  90:main.c        ****         }       
  91:main.c        ****         
  92:main.c        ****         //Find Servo Duty Percentage
  93:main.c        ****         for (i=0;i<4;i++){
 260              		.loc 1 93 0 is_stmt 1
 261 0140 0022     		movs	r2, #0
 262 0142 5A60     		str	r2, [r3, #4]
 263 0144 21E0     		b	.L12
 264              	.L13:
  94:main.c        ****             servoDutyPer[i] = 100-(((float)servoDuty[i]/(float)servoHighLimit[i])*100.0);
 265              		.loc 1 94 0 discriminator 3
 266 0146 A600     		lsls	r6, r4, #2
 267 0148 414B     		ldr	r3, .L19+28
 268 014a F058     		ldr	r0, [r6, r3]
 269 014c FFF7FEFF 		bl	__aeabi_i2f
 270              	.LVL29:
 271 0150 051C     		adds	r5, r0, #0
 272 0152 3E4B     		ldr	r3, .L19+24
 273 0154 9B19     		adds	r3, r3, r6
 274 0156 5868     		ldr	r0, [r3, #4]
 275 0158 FFF7FEFF 		bl	__aeabi_i2f
 276              	.LVL30:
 277 015c 011C     		adds	r1, r0, #0
 278 015e 281C     		adds	r0, r5, #0
 279 0160 FFF7FEFF 		bl	__aeabi_fdiv
 280              	.LVL31:
 281 0164 FFF7FEFF 		bl	__aeabi_f2d
 282              	.LVL32:
 283 0168 0022     		movs	r2, #0
 284 016a 3A4B     		ldr	r3, .L19+32
 285 016c FFF7FEFF 		bl	__aeabi_dmul
 286              	.LVL33:
 287 0170 0200     		movs	r2, r0
 288 0172 0B00     		movs	r3, r1
 289 0174 0020     		movs	r0, #0
 290 0176 3749     		ldr	r1, .L19+32
 291 0178 FFF7FEFF 		bl	__aeabi_dsub
 292              	.LVL34:
 293 017c FFF7FEFF 		bl	__aeabi_d2f
 294              	.LVL35:
 295 0180 354B     		ldr	r3, .L19+36
 296 0182 F050     		str	r0, [r6, r3]
  93:main.c        ****             servoDutyPer[i] = 100-(((float)servoDuty[i]/(float)servoHighLimit[i])*100.0);
 297              		.loc 1 93 0 discriminator 3
 298 0184 0134     		adds	r4, r4, #1
 299 0186 2D4B     		ldr	r3, .L19+8
 300 0188 5C60     		str	r4, [r3, #4]
ARM GAS  C:\Users\bhatt\AppData\Local\Temp\ccFMifLa.s 			page 8


 301              	.L12:
  93:main.c        ****             servoDutyPer[i] = 100-(((float)servoDuty[i]/(float)servoHighLimit[i])*100.0);
 302              		.loc 1 93 0 is_stmt 0 discriminator 1
 303 018a 2C4B     		ldr	r3, .L19+8
 304 018c 5C68     		ldr	r4, [r3, #4]
 305 018e 032C     		cmp	r4, #3
 306 0190 D9DD     		ble	.L13
  95:main.c        ****         }
  96:main.c        ****        
  97:main.c        ****         // clear line
  98:main.c        ****         
  99:main.c        ****         sprintf(str,"\33[2K\rRaw POT Values: %d, %d, %d, %d\r\n\33[2K\rPOT Values: %d, %d, %d, %d\r
 100:main.c        ****             rawPotVal[0],rawPotVal[1],rawPotVal[2],rawPotVal[3],\
 101:main.c        ****             potVal[0],potVal[1],potVal[2],potVal[3],\
 102:main.c        ****             servoDuty[0],servoDuty[1],servoDuty[2],servoDuty[3],\
 103:main.c        ****             servoDutyPer[0],servoDutyPer[1],servoDutyPer[2],servoDutyPer[3]);
 307              		.loc 1 103 0 is_stmt 1
 308 0192 314B     		ldr	r3, .L19+36
 309 0194 1C68     		ldr	r4, [r3]
 310 0196 5A68     		ldr	r2, [r3, #4]
 311 0198 9146     		mov	r9, r2
 312 019a 9A68     		ldr	r2, [r3, #8]
 313 019c 9246     		mov	r10, r2
 314 019e D868     		ldr	r0, [r3, #12]
  99:main.c        ****             rawPotVal[0],rawPotVal[1],rawPotVal[2],rawPotVal[3],\
 315              		.loc 1 99 0
 316 01a0 284E     		ldr	r6, .L19+16
 317 01a2 7368     		ldr	r3, [r6, #4]
 318 01a4 9846     		mov	r8, r3
 319 01a6 3768     		ldr	r7, [r6]
 320 01a8 2C4D     		ldr	r5, .L19+40
 321 01aa FFF7FEFF 		bl	__aeabi_f2d
 322              	.LVL36:
 323 01ae 1090     		str	r0, [sp, #64]
 324 01b0 1191     		str	r1, [sp, #68]
 325 01b2 5046     		mov	r0, r10
 326 01b4 FFF7FEFF 		bl	__aeabi_f2d
 327              	.LVL37:
 328 01b8 0E90     		str	r0, [sp, #56]
 329 01ba 0F91     		str	r1, [sp, #60]
 330 01bc 4846     		mov	r0, r9
 331 01be FFF7FEFF 		bl	__aeabi_f2d
 332              	.LVL38:
 333 01c2 0C90     		str	r0, [sp, #48]
 334 01c4 0D91     		str	r1, [sp, #52]
 335 01c6 201C     		adds	r0, r4, #0
 336 01c8 FFF7FEFF 		bl	__aeabi_f2d
 337              	.LVL39:
 338 01cc 0A90     		str	r0, [sp, #40]
 339 01ce 0B91     		str	r1, [sp, #44]
 340 01d0 1F4C     		ldr	r4, .L19+28
 341 01d2 E368     		ldr	r3, [r4, #12]
 342 01d4 0993     		str	r3, [sp, #36]
 343 01d6 A368     		ldr	r3, [r4, #8]
 344 01d8 0893     		str	r3, [sp, #32]
 345 01da 6368     		ldr	r3, [r4, #4]
 346 01dc 0793     		str	r3, [sp, #28]
ARM GAS  C:\Users\bhatt\AppData\Local\Temp\ccFMifLa.s 			page 9


 347 01de 2368     		ldr	r3, [r4]
 348 01e0 0693     		str	r3, [sp, #24]
 349 01e2 194B     		ldr	r3, .L19+20
 350 01e4 DA68     		ldr	r2, [r3, #12]
 351 01e6 0592     		str	r2, [sp, #20]
 352 01e8 9A68     		ldr	r2, [r3, #8]
 353 01ea 0492     		str	r2, [sp, #16]
 354 01ec 5A68     		ldr	r2, [r3, #4]
 355 01ee 0392     		str	r2, [sp, #12]
 356 01f0 1B68     		ldr	r3, [r3]
 357 01f2 0293     		str	r3, [sp, #8]
 358 01f4 5B46     		mov	r3, fp
 359 01f6 0193     		str	r3, [sp, #4]
 360 01f8 B368     		ldr	r3, [r6, #8]
 361 01fa 0093     		str	r3, [sp]
 362 01fc 4346     		mov	r3, r8
 363 01fe 3A00     		movs	r2, r7
 364 0200 1749     		ldr	r1, .L19+44
 365 0202 2800     		movs	r0, r5
 366 0204 FFF7FEFF 		bl	sprintf
 367              	.LVL40:
 104:main.c        ****         //UART_UartPutString(str);
 105:main.c        ****         //sprintf(str,"\33[2K\r POT Value: %d\r\n",potVal);
 106:main.c        ****         //UART_UartPutString(str);
 107:main.c        ****         //sprintf(str,"\33[2K\r Servo Duty Value: %d\r\n",servoDuty);
 108:main.c        ****         //UART_UartPutString(str);
 109:main.c        ****         //sprintf(str,"\33[2K\r Servo Duty Value: %f%%\r\n",100-(((float)servoDuty/(float)servoHigh
 110:main.c        ****         UART_UartPutString(str);
 368              		.loc 1 110 0
 369 0208 2800     		movs	r0, r5
 370 020a FFF7FEFF 		bl	UART_UartPutString
 371              	.LVL41:
 111:main.c        ****         
 112:main.c        ****         PWM_1_WriteCompare(servoDuty[0]);
 372              		.loc 1 112 0
 373 020e 2068     		ldr	r0, [r4]
 374 0210 FFF7FEFF 		bl	PWM_1_WriteCompare
 375              	.LVL42:
 113:main.c        ****         PWM_2_WriteCompare(servoDuty[1]);
 376              		.loc 1 113 0
 377 0214 6068     		ldr	r0, [r4, #4]
 378 0216 FFF7FEFF 		bl	PWM_2_WriteCompare
 379              	.LVL43:
 114:main.c        ****         PWM_3_WriteCompare(servoDuty[2]);
 380              		.loc 1 114 0
 381 021a A068     		ldr	r0, [r4, #8]
 382 021c FFF7FEFF 		bl	PWM_3_WriteCompare
 383              	.LVL44:
 115:main.c        ****         PWM_4_WriteCompare(servoDuty[3]);
 384              		.loc 1 115 0
 385 0220 E068     		ldr	r0, [r4, #12]
 386 0222 FFF7FEFF 		bl	PWM_4_WriteCompare
 387              	.LVL45:
 116:main.c        ****         first = 1;
 388              		.loc 1 116 0
 389 0226 0122     		movs	r2, #1
 390 0228 044B     		ldr	r3, .L19+8
ARM GAS  C:\Users\bhatt\AppData\Local\Temp\ccFMifLa.s 			page 10


 391 022a 1A60     		str	r2, [r3]
 117:main.c        ****         CyDelay(100);
 392              		.loc 1 117 0
 393 022c 6420     		movs	r0, #100
 394 022e FFF7FEFF 		bl	CyDelay
 395              	.LVL46:
 118:main.c        ****     }
 396              		.loc 1 118 0
 397 0232 05E7     		b	.L14
 398              	.L20:
 399              		.align	2
 400              	.L19:
 401 0234 00000000 		.word	.LC0
 402 0238 10000000 		.word	.LC2
 403 023c 00000000 		.word	.LANCHOR0
 404 0240 28000000 		.word	.LC5
 405 0244 00000000 		.word	rawPotVal
 406 0248 00000000 		.word	potVal
 407 024c 00000000 		.word	.LANCHOR1
 408 0250 00000000 		.word	servoDuty
 409 0254 00005940 		.word	1079574528
 410 0258 00000000 		.word	servoDutyPer
 411 025c 00000000 		.word	str
 412 0260 50000000 		.word	.LC12
 413              		.cfi_endproc
 414              	.LFE33:
 415              		.size	main, .-main
 416              		.global	i
 417              		.global	first
 418              		.global	potLowLimit
 419              		.global	potHighLimit
 420              		.comm	servoDutyPer,16,4
 421              		.global	servoLowLimit
 422              		.global	servoHighLimit
 423              		.comm	servoDuty,16,4
 424              		.comm	rawPotVal,16,4
 425              		.comm	potVal,16,4
 426              		.comm	str,200,4
 427              		.data
 428              		.align	2
 429              		.set	.LANCHOR1,. + 0
 430              		.type	potHighLimit, %object
 431              		.size	potHighLimit, 4
 432              	potHighLimit:
 433 0000 0080A244 		.word	1151500288
 434              		.type	servoHighLimit, %object
 435              		.size	servoHighLimit, 16
 436              	servoHighLimit:
 437 0004 5C120000 		.word	4700
 438 0008 3E120000 		.word	4670
 439 000c 24130000 		.word	4900
 440 0010 24130000 		.word	4900
 441              		.type	servoLowLimit, %object
 442              		.size	servoLowLimit, 16
 443              	servoLowLimit:
 444 0014 CC100000 		.word	4300
 445 0018 9A100000 		.word	4250
ARM GAS  C:\Users\bhatt\AppData\Local\Temp\ccFMifLa.s 			page 11


 446 001c 04100000 		.word	4100
 447 0020 04100000 		.word	4100
 448              		.section	.rodata.str1.4,"aMS",%progbits,1
 449              		.align	2
 450              	.LC0:
 451 0000 41726D20 		.ascii	"Arm Test v1.0\015\012\000"
 451      54657374 
 451      2076312E 
 451      300D0A00 
 452              	.LC2:
 453 0010 41757468 		.ascii	"Author: Amar Bhatt\015\012\015\012\000"
 453      6F723A20 
 453      416D6172 
 453      20426861 
 453      74740D0A 
 454 0027 00       		.space	1
 455              	.LC5:
 456 0028 0D1B5B41 		.ascii	"\015\033[A\033[2K \015\033[A\033[2K \015\033[A\033["
 456      1B5B324B 
 456      200D1B5B 
 456      411B5B32 
 456      4B200D1B 
 457 0040 324B200D 		.ascii	"2K \015\033[A\033[2K \015\000"
 457      1B5B411B 
 457      5B324B20 
 457      0D00
 458 004e 0000     		.space	2
 459              	.LC12:
 460 0050 1B5B324B 		.ascii	"\033[2K\015Raw POT Values: %d, %d, %d, %d\015\012\033"
 460      0D526177 
 460      20504F54 
 460      2056616C 
 460      7565733A 
 461 0076 5B324B0D 		.ascii	"[2K\015POT Values: %d, %d, %d, %d\015\012\033[2K\015"
 461      504F5420 
 461      56616C75 
 461      65733A20 
 461      25642C20 
 462 009b 53657276 		.ascii	"Servo Duty Counts: %d, %d, %d, %d\015\012\033[2K\015"
 462      6F204475 
 462      74792043 
 462      6F756E74 
 462      733A2025 
 463 00c3 53657276 		.ascii	"Servo Duty Values: %f%%, %f%%, %f%%, %f%%\015\012\000"
 463      6F204475 
 463      74792056 
 463      616C7565 
 463      733A2025 
 464              		.bss
 465              		.align	2
 466              		.set	.LANCHOR0,. + 0
 467              		.type	first, %object
 468              		.size	first, 4
 469              	first:
 470 0000 00000000 		.space	4
 471              		.type	i, %object
 472              		.size	i, 4
ARM GAS  C:\Users\bhatt\AppData\Local\Temp\ccFMifLa.s 			page 12


 473              	i:
 474 0004 00000000 		.space	4
 475              		.type	potLowLimit, %object
 476              		.size	potLowLimit, 4
 477              	potLowLimit:
 478 0008 00000000 		.space	4
 479              		.text
 480              	.Letext0:
 481              		.file 2 "Generated_Source\\PSoC4/UART.h"
 482              		.file 3 "Generated_Source\\PSoC4/ADC.h"
 483              		.file 4 "Generated_Source\\PSoC4/PWM_1.h"
 484              		.file 5 "Generated_Source\\PSoC4/PWM_2.h"
 485              		.file 6 "Generated_Source\\PSoC4/PWM_3.h"
 486              		.file 7 "Generated_Source\\PSoC4/PWM_4.h"
 487              		.file 8 "Generated_Source\\PSoC4/CyLib.h"
 488              		.file 9 "Generated_Source\\PSoC4/UART_SPI_UART.h"
 489              		.file 10 "c:\\program files (x86)\\cypress\\psoc creator\\4.2\\psoc creator\\import\\gnu\\arm\\5.4