ARM GAS  C:\Users\bhatt\AppData\Local\Temp\cc9FP0cR.s 			page 1


   1              		.syntax unified
   2              		.cpu cortex-m0
   3              		.fpu softvfp
   4              		.eabi_attribute 20, 1
   5              		.eabi_attribute 21, 1
   6              		.eabi_attribute 23, 3
   7              		.eabi_attribute 24, 1
   8              		.eabi_attribute 25, 1
   9              		.eabi_attribute 26, 1
  10              		.eabi_attribute 30, 1
  11              		.eabi_attribute 34, 0
  12              		.eabi_attribute 18, 4
  13              		.thumb
  14              		.syntax unified
  15              		.file	"main.c"
  16              		.text
  17              	.Ltext0:
  18              		.cfi_sections	.debug_frame
  19              		.global	__aeabi_i2f
  20              		.global	__aeabi_fcmplt
  21              		.global	__aeabi_f2iz
  22              		.global	__aeabi_fcmpgt
  23              		.global	__aeabi_fsub
  24              		.global	__aeabi_fdiv
  25              		.global	__aeabi_fmul
  26              		.global	__aeabi_fadd
  27              		.global	__aeabi_f2d
  28              		.global	__aeabi_dmul
  29              		.global	__aeabi_dsub
  30              		.section	.text.main,"ax",%progbits
  31              		.align	2
  32              		.global	main
  33              		.code	16
  34              		.thumb_func
  35              		.type	main, %function
  36              	main:
  37              	.LFB33:
  38              		.file 1 "main.c"
   1:main.c        **** /* ========================================
   2:main.c        ****  *
   3:main.c        ****  * Copyright YOUR COMPANY, THE YEAR
   4:main.c        ****  * All Rights Reserved
   5:main.c        ****  * UNPUBLISHED, LICENSED SOFTWARE.
   6:main.c        ****  *
   7:main.c        ****  * CONFIDENTIAL AND PROPRIETARY INFORMATION
   8:main.c        ****  * WHICH IS THE PROPERTY OF your company.
   9:main.c        ****  *
  10:main.c        ****  * ========================================
  11:main.c        **** */
  12:main.c        **** #include "project.h"
  13:main.c        **** #include <stdio.h>
  14:main.c        **** 
  15:main.c        **** char str[200];
  16:main.c        **** int potVal;
  17:main.c        **** int rawPotVal;
  18:main.c        **** int servoDuty;
  19:main.c        **** int potVal_1;
ARM GAS  C:\Users\bhatt\AppData\Local\Temp\cc9FP0cR.s 			page 2


  20:main.c        **** int rawPotVal_1;
  21:main.c        **** int servoDuty_1;
  22:main.c        **** float servoHighLimit = 4700;
  23:main.c        **** float servoLowLimit = 4300;
  24:main.c        **** float servoHighLimit_1 = 4670;
  25:main.c        **** float servoLowLimit_1 = 4250;
  26:main.c        **** float potHighLimit = 1300;
  27:main.c        **** float potLowLimit = 0;
  28:main.c        **** int first = 0;
  29:main.c        **** 
  30:main.c        **** int main(void)
  31:main.c        **** {
  39              		.loc 1 31 0
  40              		.cfi_startproc
  41              		@ Volatile: function does not return.
  42              		@ args = 0, pretend = 0, frame = 24
  43              		@ frame_needed = 0, uses_anonymous_args = 0
  44 0000 F0B5     		push	{r4, r5, r6, r7, lr}
  45              		.cfi_def_cfa_offset 20
  46              		.cfi_offset 4, -20
  47              		.cfi_offset 5, -16
  48              		.cfi_offset 6, -12
  49              		.cfi_offset 7, -8
  50              		.cfi_offset 14, -4
  51 0002 5F46     		mov	r7, fp
  52 0004 5646     		mov	r6, r10
  53 0006 4D46     		mov	r5, r9
  54 0008 4446     		mov	r4, r8
  55 000a F0B4     		push	{r4, r5, r6, r7}
  56              		.cfi_def_cfa_offset 36
  57              		.cfi_offset 8, -36
  58              		.cfi_offset 9, -32
  59              		.cfi_offset 10, -28
  60              		.cfi_offset 11, -24
  61 000c 8FB0     		sub	sp, sp, #60
  62              		.cfi_def_cfa_offset 96
  32:main.c        ****     CyGlobalIntEnable; /* Enable global interrupts. */
  63              		.loc 1 32 0
  64              		.syntax divided
  65              	@ 32 "main.c" 1
  66 000e 62B6     		CPSIE   i
  67              	@ 0 "" 2
  33:main.c        ****     UART_Start();
  68              		.loc 1 33 0
  69              		.thumb
  70              		.syntax unified
  71 0010 FFF7FEFF 		bl	UART_Start
  72              	.LVL0:
  34:main.c        ****     
  35:main.c        ****     // Start ADC for J1    
  36:main.c        ****     ADC_Start();
  73              		.loc 1 36 0
  74 0014 FFF7FEFF 		bl	ADC_Start
  75              	.LVL1:
  37:main.c        ****     ADC_StartConvert(); //always poll ADC continuously
  76              		.loc 1 37 0
  77 0018 FFF7FEFF 		bl	ADC_StartConvert
ARM GAS  C:\Users\bhatt\AppData\Local\Temp\cc9FP0cR.s 			page 3


  78              	.LVL2:
  38:main.c        ****     
  39:main.c        ****     // Start PWM for J1
  40:main.c        ****     PWM_Start();
  79              		.loc 1 40 0
  80 001c FFF7FEFF 		bl	PWM_Start
  81              	.LVL3:
  41:main.c        ****     // Start PWM for J2
  42:main.c        ****     PWM_1_Start();
  82              		.loc 1 42 0
  83 0020 FFF7FEFF 		bl	PWM_1_Start
  84              	.LVL4:
  43:main.c        ****     //PWM_WritePeriod(65300u);
  44:main.c        ****     //PWM_WriteCompare(32650u);
  45:main.c        ****     /* Place your initialization/startup code here (e.g. MyInst_Start()) */
  46:main.c        ****     CyDelay(500);
  85              		.loc 1 46 0
  86 0024 FA20     		movs	r0, #250
  87 0026 4000     		lsls	r0, r0, #1
  88 0028 FFF7FEFF 		bl	CyDelay
  89              	.LVL5:
  47:main.c        ****     UART_UartPutString("Servo Motor Test v1.0\r\n");
  90              		.loc 1 47 0
  91 002c 7648     		ldr	r0, .L22
  92 002e FFF7FEFF 		bl	UART_UartPutString
  93              	.LVL6:
  48:main.c        ****     UART_UartPutString("Author: Amar Bhatt\r\n\r\n");
  94              		.loc 1 48 0
  95 0032 7648     		ldr	r0, .L22+4
  96 0034 FFF7FEFF 		bl	UART_UartPutString
  97              	.LVL7:
  98              	.L13:
  49:main.c        ****     
  50:main.c        ****     for(;;)
  51:main.c        ****     {
  52:main.c        ****         /* Place your application code here. */
  53:main.c        ****         if(first == 1) {
  99              		.loc 1 53 0
 100 0038 754B     		ldr	r3, .L22+8
 101 003a 1B68     		ldr	r3, [r3]
 102 003c 012B     		cmp	r3, #1
 103 003e 02D1     		bne	.L2
  54:main.c        ****             UART_UartPutString("\r\033[A\33[2K \r\033[A\33[2K \r\033[A\33[2K \r\033[A\33[2K \r");//
 104              		.loc 1 54 0
 105 0040 7448     		ldr	r0, .L22+12
 106 0042 FFF7FEFF 		bl	UART_UartPutString
 107              	.LVL8:
 108              	.L2:
  55:main.c        ****         }
  56:main.c        ****         rawPotVal = ADC_GetResult16(0);        
 109              		.loc 1 56 0
 110 0046 0020     		movs	r0, #0
 111 0048 FFF7FEFF 		bl	ADC_GetResult16
 112              	.LVL9:
 113 004c 0400     		movs	r4, r0
 114 004e 724B     		ldr	r3, .L22+16
 115 0050 1860     		str	r0, [r3]
ARM GAS  C:\Users\bhatt\AppData\Local\Temp\cc9FP0cR.s 			page 4


  57:main.c        ****         if (rawPotVal < potLowLimit) {
 116              		.loc 1 57 0
 117 0052 FFF7FEFF 		bl	__aeabi_i2f
 118              	.LVL10:
 119 0056 051C     		adds	r5, r0, #0
 120 0058 6D4B     		ldr	r3, .L22+8
 121 005a 5E68     		ldr	r6, [r3, #4]
 122 005c 311C     		adds	r1, r6, #0
 123 005e FFF7FEFF 		bl	__aeabi_fcmplt
 124              	.LVL11:
 125 0062 0028     		cmp	r0, #0
 126 0064 05D0     		beq	.L18
  58:main.c        ****             potVal = potLowLimit;
 127              		.loc 1 58 0
 128 0066 301C     		adds	r0, r6, #0
 129 0068 FFF7FEFF 		bl	__aeabi_f2iz
 130              	.LVL12:
 131 006c 6B4B     		ldr	r3, .L22+20
 132 006e 1860     		str	r0, [r3]
 133 0070 0FE0     		b	.L5
 134              	.L18:
  59:main.c        ****         } else if (rawPotVal > potHighLimit){
 135              		.loc 1 59 0
 136 0072 6B4B     		ldr	r3, .L22+24
 137 0074 1E68     		ldr	r6, [r3]
 138 0076 311C     		adds	r1, r6, #0
 139 0078 281C     		adds	r0, r5, #0
 140 007a FFF7FEFF 		bl	__aeabi_fcmpgt
 141              	.LVL13:
 142 007e 0028     		cmp	r0, #0
 143 0080 05D0     		beq	.L19
  60:main.c        ****             potVal = potHighLimit;
 144              		.loc 1 60 0
 145 0082 301C     		adds	r0, r6, #0
 146 0084 FFF7FEFF 		bl	__aeabi_f2iz
 147              	.LVL14:
 148 0088 644B     		ldr	r3, .L22+20
 149 008a 1860     		str	r0, [r3]
 150 008c 01E0     		b	.L5
 151              	.L19:
  61:main.c        ****         } else {
  62:main.c        ****             potVal = rawPotVal;
 152              		.loc 1 62 0
 153 008e 634B     		ldr	r3, .L22+20
 154 0090 1C60     		str	r4, [r3]
 155              	.L5:
  63:main.c        ****         }      
  64:main.c        ****         rawPotVal_1 = ADC_GetResult16(1);
 156              		.loc 1 64 0
 157 0092 0120     		movs	r0, #1
 158 0094 FFF7FEFF 		bl	ADC_GetResult16
 159              	.LVL15:
 160 0098 0990     		str	r0, [sp, #36]
 161 009a 624B     		ldr	r3, .L22+28
 162 009c 1860     		str	r0, [r3]
  65:main.c        ****         if (rawPotVal_1 < potLowLimit) {
 163              		.loc 1 65 0
ARM GAS  C:\Users\bhatt\AppData\Local\Temp\cc9FP0cR.s 			page 5


 164 009e FFF7FEFF 		bl	__aeabi_i2f
 165              	.LVL16:
 166 00a2 051C     		adds	r5, r0, #0
 167 00a4 5A4B     		ldr	r3, .L22+8
 168 00a6 5C68     		ldr	r4, [r3, #4]
 169 00a8 211C     		adds	r1, r4, #0
 170 00aa FFF7FEFF 		bl	__aeabi_fcmplt
 171              	.LVL17:
 172 00ae 0028     		cmp	r0, #0
 173 00b0 05D0     		beq	.L20
  66:main.c        ****             potVal_1 = potLowLimit;
 174              		.loc 1 66 0
 175 00b2 201C     		adds	r0, r4, #0
 176 00b4 FFF7FEFF 		bl	__aeabi_f2iz
 177              	.LVL18:
 178 00b8 5B4B     		ldr	r3, .L22+32
 179 00ba 1860     		str	r0, [r3]
 180 00bc 10E0     		b	.L10
 181              	.L20:
  67:main.c        ****         } else if (rawPotVal_1 > potHighLimit){
 182              		.loc 1 67 0
 183 00be 584B     		ldr	r3, .L22+24
 184 00c0 1E68     		ldr	r6, [r3]
 185 00c2 311C     		adds	r1, r6, #0
 186 00c4 281C     		adds	r0, r5, #0
 187 00c6 FFF7FEFF 		bl	__aeabi_fcmpgt
 188              	.LVL19:
 189 00ca 0028     		cmp	r0, #0
 190 00cc 05D0     		beq	.L21
  68:main.c        ****             potVal_1 = potHighLimit;
 191              		.loc 1 68 0
 192 00ce 301C     		adds	r0, r6, #0
 193 00d0 FFF7FEFF 		bl	__aeabi_f2iz
 194              	.LVL20:
 195 00d4 544B     		ldr	r3, .L22+32
 196 00d6 1860     		str	r0, [r3]
 197 00d8 02E0     		b	.L10
 198              	.L21:
  69:main.c        ****         } else {
  70:main.c        ****             potVal_1 = rawPotVal_1;
 199              		.loc 1 70 0
 200 00da 534B     		ldr	r3, .L22+32
 201 00dc 099A     		ldr	r2, [sp, #36]
 202 00de 1A60     		str	r2, [r3]
 203              	.L10:
  71:main.c        ****         }  
  72:main.c        ****         servoDuty = (potVal-potLowLimit)*((servoHighLimit-servoLowLimit)/(potHighLimit-potLowLimit)
 204              		.loc 1 72 0
 205 00e0 4E4B     		ldr	r3, .L22+20
 206 00e2 1B68     		ldr	r3, [r3]
 207 00e4 9846     		mov	r8, r3
 208 00e6 1800     		movs	r0, r3
 209 00e8 FFF7FEFF 		bl	__aeabi_i2f
 210              	.LVL21:
 211 00ec 211C     		adds	r1, r4, #0
 212 00ee FFF7FEFF 		bl	__aeabi_fsub
 213              	.LVL22:
ARM GAS  C:\Users\bhatt\AppData\Local\Temp\cc9FP0cR.s 			page 6


 214 00f2 0A90     		str	r0, [sp, #40]
 215 00f4 4A4F     		ldr	r7, .L22+24
 216 00f6 7D68     		ldr	r5, [r7, #4]
 217 00f8 BE68     		ldr	r6, [r7, #8]
 218 00fa 311C     		adds	r1, r6, #0
 219 00fc 281C     		adds	r0, r5, #0
 220 00fe FFF7FEFF 		bl	__aeabi_fsub
 221              	.LVL23:
 222 0102 0C90     		str	r0, [sp, #48]
 223 0104 211C     		adds	r1, r4, #0
 224 0106 3868     		ldr	r0, [r7]
 225 0108 FFF7FEFF 		bl	__aeabi_fsub
 226              	.LVL24:
 227 010c 0D90     		str	r0, [sp, #52]
 228 010e 011C     		adds	r1, r0, #0
 229 0110 0C98     		ldr	r0, [sp, #48]
 230 0112 FFF7FEFF 		bl	__aeabi_fdiv
 231              	.LVL25:
 232 0116 011C     		adds	r1, r0, #0
 233 0118 0A98     		ldr	r0, [sp, #40]
 234 011a FFF7FEFF 		bl	__aeabi_fmul
 235              	.LVL26:
 236 011e 011C     		adds	r1, r0, #0
 237 0120 301C     		adds	r0, r6, #0
 238 0122 FFF7FEFF 		bl	__aeabi_fadd
 239              	.LVL27:
 240 0126 FFF7FEFF 		bl	__aeabi_f2iz
 241              	.LVL28:
 242 012a 8346     		mov	fp, r0
 243 012c 3F4A     		ldr	r2, .L22+36
 244 012e 9146     		mov	r9, r2
 245 0130 1060     		str	r0, [r2]
  73:main.c        ****         servoDuty_1 = (potVal_1-potLowLimit)*((servoHighLimit_1-servoLowLimit_1)/(potHighLimit-potL
 246              		.loc 1 73 0
 247 0132 3D4B     		ldr	r3, .L22+32
 248 0134 1A68     		ldr	r2, [r3]
 249 0136 9246     		mov	r10, r2
 250 0138 1000     		movs	r0, r2
 251 013a FFF7FEFF 		bl	__aeabi_i2f
 252              	.LVL29:
 253 013e 211C     		adds	r1, r4, #0
 254 0140 FFF7FEFF 		bl	__aeabi_fsub
 255              	.LVL30:
 256 0144 0A90     		str	r0, [sp, #40]
 257 0146 FC68     		ldr	r4, [r7, #12]
 258 0148 3E69     		ldr	r6, [r7, #16]
 259 014a 311C     		adds	r1, r6, #0
 260 014c 201C     		adds	r0, r4, #0
 261 014e FFF7FEFF 		bl	__aeabi_fsub
 262              	.LVL31:
 263 0152 0D99     		ldr	r1, [sp, #52]
 264 0154 FFF7FEFF 		bl	__aeabi_fdiv
 265              	.LVL32:
 266 0158 011C     		adds	r1, r0, #0
 267 015a 0A98     		ldr	r0, [sp, #40]
 268 015c FFF7FEFF 		bl	__aeabi_fmul
 269              	.LVL33:
ARM GAS  C:\Users\bhatt\AppData\Local\Temp\cc9FP0cR.s 			page 7


 270 0160 011C     		adds	r1, r0, #0
 271 0162 301C     		adds	r0, r6, #0
 272 0164 FFF7FEFF 		bl	__aeabi_fadd
 273              	.LVL34:
 274 0168 FFF7FEFF 		bl	__aeabi_f2iz
 275              	.LVL35:
 276 016c 0600     		movs	r6, r0
 277 016e 304F     		ldr	r7, .L22+40
 278 0170 3860     		str	r0, [r7]
  74:main.c        ****         // clear line
  75:main.c        ****         
  76:main.c        ****         sprintf(str,"\33[2K\rRaw POT Values: %d, %d\r\n\33[2K\rPOT Values: %d, %d\r\n\33[2K\rServo 
 279              		.loc 1 76 0
 280 0172 5846     		mov	r0, fp
 281 0174 FFF7FEFF 		bl	__aeabi_i2f
 282              	.LVL36:
 283 0178 291C     		adds	r1, r5, #0
 284 017a FFF7FEFF 		bl	__aeabi_fdiv
 285              	.LVL37:
 286 017e FFF7FEFF 		bl	__aeabi_f2d
 287              	.LVL38:
 288 0182 0022     		movs	r2, #0
 289 0184 2B4B     		ldr	r3, .L22+44
 290 0186 FFF7FEFF 		bl	__aeabi_dmul
 291              	.LVL39:
 292 018a 0A90     		str	r0, [sp, #40]
 293 018c 0B91     		str	r1, [sp, #44]
 294 018e 3000     		movs	r0, r6
 295 0190 FFF7FEFF 		bl	__aeabi_i2f
 296              	.LVL40:
 297 0194 211C     		adds	r1, r4, #0
 298 0196 FFF7FEFF 		bl	__aeabi_fdiv
 299              	.LVL41:
 300 019a FFF7FEFF 		bl	__aeabi_f2d
 301              	.LVL42:
 302 019e 0022     		movs	r2, #0
 303 01a0 244B     		ldr	r3, .L22+44
 304 01a2 FFF7FEFF 		bl	__aeabi_dmul
 305              	.LVL43:
 306 01a6 0200     		movs	r2, r0
 307 01a8 0B00     		movs	r3, r1
 308 01aa 1B49     		ldr	r1, .L22+16
 309 01ac 0D68     		ldr	r5, [r1]
 310 01ae 224C     		ldr	r4, .L22+48
 311 01b0 0020     		movs	r0, #0
 312 01b2 2049     		ldr	r1, .L22+44
 313 01b4 FFF7FEFF 		bl	__aeabi_dsub
 314              	.LVL44:
 315 01b8 0690     		str	r0, [sp, #24]
 316 01ba 0791     		str	r1, [sp, #28]
 317 01bc 0A9A     		ldr	r2, [sp, #40]
 318 01be 0B9B     		ldr	r3, [sp, #44]
 319 01c0 0020     		movs	r0, #0
 320 01c2 1C49     		ldr	r1, .L22+44
 321 01c4 FFF7FEFF 		bl	__aeabi_dsub
 322              	.LVL45:
 323 01c8 0490     		str	r0, [sp, #16]
ARM GAS  C:\Users\bhatt\AppData\Local\Temp\cc9FP0cR.s 			page 8


 324 01ca 0591     		str	r1, [sp, #20]
 325 01cc 0396     		str	r6, [sp, #12]
 326 01ce 5B46     		mov	r3, fp
 327 01d0 0293     		str	r3, [sp, #8]
 328 01d2 5346     		mov	r3, r10
 329 01d4 0193     		str	r3, [sp, #4]
 330 01d6 4346     		mov	r3, r8
 331 01d8 0093     		str	r3, [sp]
 332 01da 099B     		ldr	r3, [sp, #36]
 333 01dc 2A00     		movs	r2, r5
 334 01de 1749     		ldr	r1, .L22+52
 335 01e0 2000     		movs	r0, r4
 336 01e2 FFF7FEFF 		bl	sprintf
 337              	.LVL46:
  77:main.c        ****         //UART_UartPutString(str);
  78:main.c        ****         //sprintf(str,"\33[2K\r POT Value: %d\r\n",potVal);
  79:main.c        ****         //UART_UartPutString(str);
  80:main.c        ****         //sprintf(str,"\33[2K\r Servo Duty Value: %d\r\n",servoDuty);
  81:main.c        ****         //UART_UartPutString(str);
  82:main.c        ****         //sprintf(str,"\33[2K\r Servo Duty Value: %f%%\r\n",100-(((float)servoDuty/(float)servoHigh
  83:main.c        ****         UART_UartPutString(str);
 338              		.loc 1 83 0
 339 01e6 2000     		movs	r0, r4
 340 01e8 FFF7FEFF 		bl	UART_UartPutString
 341              	.LVL47:
  84:main.c        ****         
  85:main.c        ****         PWM_WriteCompare(servoDuty);
 342              		.loc 1 85 0
 343 01ec 4B46     		mov	r3, r9
 344 01ee 1868     		ldr	r0, [r3]
 345 01f0 FFF7FEFF 		bl	PWM_WriteCompare
 346              	.LVL48:
  86:main.c        ****         PWM_1_WriteCompare(servoDuty_1);
 347              		.loc 1 86 0
 348 01f4 3868     		ldr	r0, [r7]
 349 01f6 FFF7FEFF 		bl	PWM_1_WriteCompare
 350              	.LVL49:
  87:main.c        ****         first = 1;
 351              		.loc 1 87 0
 352 01fa 0122     		movs	r2, #1
 353 01fc 044B     		ldr	r3, .L22+8
 354 01fe 1A60     		str	r2, [r3]
  88:main.c        ****         CyDelay(100);
 355              		.loc 1 88 0
 356 0200 6420     		movs	r0, #100
 357 0202 FFF7FEFF 		bl	CyDelay
 358              	.LVL50:
  89:main.c        ****     }
 359              		.loc 1 89 0
 360 0206 17E7     		b	.L13
 361              	.L23:
 362              		.align	2
 363              	.L22:
 364 0208 00000000 		.word	.LC0
 365 020c 18000000 		.word	.LC2
 366 0210 00000000 		.word	.LANCHOR0
 367 0214 30000000 		.word	.LC5
ARM GAS  C:\Users\bhatt\AppData\Local\Temp\cc9FP0cR.s 			page 9


 368 0218 00000000 		.word	rawPotVal
 369 021c 00000000 		.word	potVal
 370 0220 00000000 		.word	.LANCHOR1
 371 0224 00000000 		.word	rawPotVal_1
 372 0228 00000000 		.word	potVal_1
 373 022c 00000000 		.word	servoDuty
 374 0230 00000000 		.word	servoDuty_1
 375 0234 00005940 		.word	1079574528
 376 0238 00000000 		.word	str
 377 023c 58000000 		.word	.LC14
 378              		.cfi_endproc
 379              	.LFE33:
 380              		.size	main, .-main
 381              		.global	first
 382              		.global	potLowLimit
 383              		.global	potHighLimit
 384              		.global	servoLowLimit_1
 385              		.global	servoHighLimit_1
 386              		.global	servoLowLimit
 387              		.global	servoHighLimit
 388              		.comm	servoDuty_1,4,4
 389              		.comm	rawPotVal_1,4,4
 390              		.comm	potVal_1,4,4
 391              		.comm	servoDuty,4,4
 392              		.comm	rawPotVal,4,4
 393              		.comm	potVal,4,4
 394              		.comm	str,200,4
 395              		.data
 396              		.align	2
 397              		.set	.LANCHOR1,. + 0
 398              		.type	potHighLimit, %object
 399              		.size	potHighLimit, 4
 400              	potHighLimit:
 401 0000 0080A244 		.word	1151500288
 402              		.type	servoHighLimit, %object
 403              		.size	servoHighLimit, 4
 404              	servoHighLimit:
 405 0004 00E09245 		.word	1167253504
 406              		.type	servoLowLimit, %object
 407              		.size	servoLowLimit, 4
 408              	servoLowLimit:
 409 0008 00608645 		.word	1166434304
 410              		.type	servoHighLimit_1, %object
 411              		.size	servoHighLimit_1, 4
 412              	servoHighLimit_1:
 413 000c 00F09145 		.word	1167192064
 414              		.type	servoLowLimit_1, %object
 415              		.size	servoLowLimit_1, 4
 416              	servoLowLimit_1:
 417 0010 00D08445 		.word	1166331904
 418              		.section	.rodata.str1.4,"aMS",%progbits,1
 419              		.align	2
 420              	.LC0:
 421 0000 53657276 		.ascii	"Servo Motor Test v1.0\015\012\000"
 421      6F204D6F 
 421      746F7220 
 421      54657374 
ARM GAS  C:\Users\bhatt\AppData\Local\Temp\cc9FP0cR.s 			page 10


 421      2076312E 
 422              	.LC2:
 423 0018 41757468 		.ascii	"Author: Amar Bhatt\015\012\015\012\000"
 423      6F723A20 
 423      416D6172 
 423      20426861 
 423      74740D0A 
 424 002f 00       		.space	1
 425              	.LC5:
 426 0030 0D1B5B41 		.ascii	"\015\033[A\033[2K \015\033[A\033[2K \015\033[A\033["
 426      1B5B324B 
 426      200D1B5B 
 426      411B5B32 
 426      4B200D1B 
 427 0048 324B200D 		.ascii	"2K \015\033[A\033[2K \015\000"
 427      1B5B411B 
 427      5B324B20 
 427      0D00
 428 0056 0000     		.space	2
 429              	.LC14:
 430 0058 1B5B324B 		.ascii	"\033[2K\015Raw POT Values: %d, %d\015\012\033[2K\015"
 430      0D526177 
 430      20504F54 
 430      2056616C 
 430      7565733A 
 431 007a 504F5420 		.ascii	"POT Values: %d, %d\015\012\033[2K\015Servo Duty Cou"
 431      56616C75 
 431      65733A20 
 431      25642C20 
 431      25640D0A 
 432 00a1 6E74733A 		.ascii	"nts: %d, %d\015\012\033[2K\015Servo Duty Values: %f"
 432      2025642C 
 432      2025640D 
 432      0A1B5B32 
 432      4B0D5365 
 433 00c8 25252C20 		.ascii	"%%, %f%%\015\012\000"
 433      25662525 
 433      0D0A00
 434              		.bss
 435              		.align	2
 436              		.set	.LANCHOR0,. + 0
 437              		.type	first, %object
 438              		.size	first, 4
 439              	first:
 440 0000 00000000 		.space	4
 441              		.type	potLowLimit, %object
 442              		.size	potLowLimit, 4
 443              	potLowLimit:
 444 0004 00000000 		.space	4
 445              		.text
 446              	.Letext0:
 447              		.file 2 "Generated_Source\\PSoC4/UART.h"
 448              		.file 3 "Generated_Source\\PSoC4/ADC.h"
 449              		.file 4 "Generated_Source\\PSoC4/PWM.h"
 450              		.file 5 "Generated_Source\\PSoC4/PWM_1.h"
 451              		.file 6 "Generated_Source\\PSoC4/CyLib.h"
 452              		.file 7 "Generated_Source\\PSoC4/UART_SPI_UART.h"
ARM GAS  C:\Users\bhatt\AppData\Local\Temp\cc9FP0cR.s 			page 11


 453              		.file 8 "c:\\program files (x86)\\cypress\\psoc creator\\4.2\\psoc creator\\import\\gnu\\arm\\5.4.